; Function Attrs: mustprogress uwtable
define void @_ZN16veloxtpFlexLexer9yyrestartEPSi(ptr noundef nonnull align 8 dereferenceable(732) %this, ptr noundef %input_file) unnamed_addr #4 align 2 {
entry:
  %tobool.not = icmp eq ptr %input_file, null
  %yyin = getelementptr inbounds i8, ptr %this, i64 48
  %spec.select = select i1 %tobool.not, ptr %yyin, ptr %input_file
  %vtable = load ptr, ptr %this, align 8
  %vfn = getelementptr inbounds i8, ptr %vtable, i64 56
  %0 = load ptr, ptr %vfn, align 8
  tail call void %0(ptr noundef nonnull align 8 dereferenceable(732) %this, ptr noundef nonnull align 8 dereferenceable(16) %spec.select)
  ret void
}